; Function Attrs: mustprogress uwtable
define hidden noundef i32 @_ZN4ncnn29get_physical_little_cpu_countEv() local_unnamed_addr #5 {
  tail call fastcc void @_ZL30try_initialize_global_cpu_infov()
  %1 = load i32, ptr @_ZL19g_physical_cpucount, align 4, !tbaa !10
  %2 = load i32, ptr @_ZL10g_cpucount, align 4, !tbaa !10
  %3 = icmp eq i32 %1, %2
  br i1 %3, label %4, label %12

4:                                                ; preds = %0
  tail call fastcc void @_ZL30try_initialize_global_cpu_infov()
  tail call fastcc void @_ZL30try_initialize_global_cpu_infov()
  br label %_ZNK4ncnn6CpuSet10is_enabledEi.exit.i.i

_ZNK4ncnn6CpuSet10is_enabledEi.exit.i.i:          ; preds = %_ZNK4ncnn6CpuSet10is_enabledEi.exit.i.i, %4
  %indvars.iv.i.i = phi i64 [ 0, %4 ], [ %indvars.iv.next.i.i, %_ZNK4ncnn6CpuSet10is_enabledEi.exit.i.i ]
  %.056.i.i = phi i32 [ 0, %4 ], [ %spec.select.i.i, %_ZNK4ncnn6CpuSet10is_enabledEi.exit.i.i ]
  %5 = lshr i64 %indvars.iv.i.i, 6
  %6 = getelementptr inbounds nuw i64, ptr @_ZL26g_cpu_affinity_mask_little, i64 %5
  %7 = load i64, ptr %6, align 8, !tbaa !4
  %8 = and i64 %indvars.iv.i.i, 63
  %9 = lshr i64 %7, %8
  %10 = trunc i64 %9 to i32
  %11 = and i32 %10, 1
  %spec.select.i.i = add nuw nsw i32 %11, %.056.i.i
  %indvars.iv.next.i.i = add nuw nsw i64 %indvars.iv.i.i, 1
  %exitcond.not.i.i = icmp eq i64 %indvars.iv.next.i.i, 1024
  br i1 %exitcond.not.i.i, label %_ZN4ncnn20get_little_cpu_countEv.exit, label %_ZNK4ncnn6CpuSet10is_enabledEi.exit.i.i, !llvm.loop !8

12:                                               ; preds = %0
  %13 = shl nsw i32 %1, 1
  %14 = sub nsw i32 %13, %2
  br label %_ZN4ncnn20get_little_cpu_countEv.exit

_ZN4ncnn20get_little_cpu_countEv.exit:            ; preds = %_ZNK4ncnn6CpuSet10is_enabledEi.exit.i.i, %12
  %.0 = phi i32 [ %14, %12 ], [ %spec.select.i.i, %_ZNK4ncnn6CpuSet10is_enabledEi.exit.i.i ]
  ret i32 %.0
}